target datalayout = "e-m:e-p270:32:32-p271:32:32-p272:64:64-i64:64-i128:128-f80:128-n8:16:32:64-S128"
target triple = "x86_64-pc-linux-gnu"

%struct.timespec = type { i64, i64 }
%struct.conmgr_callbacks_t = type { ptr, ptr }
%union.pthread_mutex_t = type { %struct.__pthread_mutex_s }
%struct.__pthread_mutex_s = type { i32, i32, i32, i32, i32, i16, i16, %struct.__pthread_internal_list }
%struct.__pthread_internal_list = type { ptr, ptr }
%struct.event_signal_t = type { ptr, %union.pthread_cond_t, i32, i32 }
%union.pthread_cond_t = type { %struct.__pthread_cond_s }
%struct.__pthread_cond_s = type { %union.__atomic_wide_counter, %union.__atomic_wide_counter, [2 x i32], [2 x i32], i32, i32, [2 x i32] }
%union.__atomic_wide_counter = type { i64 }
%struct.conmgr_t = type { i32, i32, %struct.timespec, %struct.timespec, %struct.timespec, i32, ptr, ptr, ptr, i8, i8, i64, %struct.timespec, i8, i8, i8, i8, i8, i32, ptr, ptr, %struct.conmgr_callbacks_t, %union.pthread_mutex_t, %struct.anon, %struct.anon.1, %struct.event_signal_t, %struct.event_signal_t, %struct.event_signal_t, %struct.event_signal_t }
%struct.anon = type { i32, ptr, i32, i32, i8, i32 }
%struct.anon.1 = type { i8, i8, %struct.event_signal_t, %struct.event_signal_t }

@.str = private unnamed_addr constant [15 x i8] c"START_QUIESCED\00", align 1
@.str.1 = private unnamed_addr constant [14 x i8] c"STOP_QUIESCED\00", align 1
@.str.2 = private unnamed_addr constant [12 x i8] c"WATCH_SLEEP\00", align 1
@.str.3 = private unnamed_addr constant [13 x i8] c"WATCH_RETURN\00", align 1
@.str.4 = private unnamed_addr constant [13 x i8] c"WORKER_SLEEP\00", align 1
@.str.5 = private unnamed_addr constant [14 x i8] c"WORKER_RETURN\00", align 1
@enabled_init = internal global i32 0, align 4
@enabled_status = internal global i8 0, align 1

; Function Attrs: nounwind uwtable
define internal void @_atfork_child() #0 {
  %1 = alloca %struct.conmgr_t, align 8
  call void @llvm.memset.p0.i64(ptr align 8 %1, i8 0, i64 632, i1 false)
  %2 = getelementptr inbounds nuw %struct.conmgr_t, ptr %1, i32 0, i32 0
  store i32 -1, ptr %2, align 8
  %3 = getelementptr inbounds nuw %struct.conmgr_t, ptr %1, i32 0, i32 5
  store i32 -1, ptr %3, align 8
  %4 = getelementptr inbounds nuw %struct.conmgr_t, ptr %1, i32 0, i32 14
  store i8 1, ptr %4, align 1
  %5 = getelementptr inbounds nuw %struct.conmgr_t, ptr %1, i32 0, i32 22
  %6 = getelementptr inbounds nuw %struct.__pthread_mutex_s, ptr %5, i32 0, i32 4
  store i32 0, ptr %6, align 8
  %7 = getelementptr inbounds nuw %struct.conmgr_t, ptr %1, i32 0, i32 23
  %8 = getelementptr inbounds nuw %struct.anon, ptr %7, i32 0, i32 0
  store i32 -1, ptr %8, align 8
  %9 = getelementptr inbounds nuw %struct.conmgr_t, ptr %1, i32 0, i32 24
  %10 = getelementptr inbounds nuw %struct.anon.1, ptr %9, i32 0, i32 2
  %11 = getelementptr inbounds nuw %struct.event_signal_t, ptr %10, i32 0, i32 0
  store ptr @.str, ptr %11, align 8
  %12 = getelementptr inbounds nuw %struct.anon.1, ptr %9, i32 0, i32 3
  %13 = getelementptr inbounds nuw %struct.event_signal_t, ptr %12, i32 0, i32 0
  store ptr @.str.1, ptr %13, align 8
  %14 = getelementptr inbounds nuw %struct.conmgr_t, ptr %1, i32 0, i32 25
  %15 = getelementptr inbounds nuw %struct.event_signal_t, ptr %14, i32 0, i32 0
  store ptr @.str.2, ptr %15, align 8
  %16 = getelementptr inbounds nuw %struct.conmgr_t, ptr %1, i32 0, i32 26
  %17 = getelementptr inbounds nuw %struct.event_signal_t, ptr %16, i32 0, i32 0
  store ptr @.str.3, ptr %17, align 8
  %18 = getelementptr inbounds nuw %struct.conmgr_t, ptr %1, i32 0, i32 27
  %19 = getelementptr inbounds nuw %struct.event_signal_t, ptr %18, i32 0, i32 0
  store ptr @.str.4, ptr %19, align 8
  %20 = getelementptr inbounds nuw %struct.conmgr_t, ptr %1, i32 0, i32 28
  %21 = getelementptr inbounds nuw %struct.event_signal_t, ptr %20, i32 0, i32 0
  store ptr @.str.5, ptr %21, align 8
  call void @llvm.memcpy.p0.p0.i64(ptr align 8 @mgr, ptr align 8 %1, i64 632, i1 false)
  store i32 0, ptr @enabled_init, align 4
  store i8 0, ptr @enabled_status, align 1
  ret void
}