; Function Attrs: mustprogress nofree norecurse nosync nounwind willreturn memory(write, argmem: none, inaccessiblemem: none) uwtable
define internal void @_atfork_child() #6 {
  store i32 -1, ptr @mgr, align 8
  tail call void @llvm.memset.p0.i64(ptr noundef nonnull align 4 dereferenceable(52) getelementptr inbounds nuw (i8, ptr @mgr, i64 4), i8 0, i64 52, i1 false)
  store i32 -1, ptr getelementptr inbounds nuw (i8, ptr @mgr, i64 56), align 8
  tail call void @llvm.memset.p0.i64(ptr noundef nonnull align 4 dereferenceable(61) getelementptr inbounds nuw (i8, ptr @mgr, i64 60), i8 0, i64 61, i1 false)
  store i8 1, ptr getelementptr inbounds nuw (i8, ptr @mgr, i64 121), align 1
  tail call void @llvm.memset.p0.i64(ptr noundef nonnull align 2 dereferenceable(86) getelementptr inbounds nuw (i8, ptr @mgr, i64 122), i8 0, i64 86, i1 false)
  store i32 -1, ptr getelementptr inbounds nuw (i8, ptr @mgr, i64 208), align 8
  tail call void @llvm.memset.p0.i64(ptr noundef nonnull align 4 dereferenceable(36) getelementptr inbounds nuw (i8, ptr @mgr, i64 212), i8 0, i64 36, i1 false)
  store ptr @.str, ptr getelementptr inbounds nuw (i8, ptr @mgr, i64 248), align 8
  tail call void @llvm.memset.p0.i64(ptr noundef nonnull align 8 dereferenceable(56) getelementptr inbounds nuw (i8, ptr @mgr, i64 256), i8 0, i64 56, i1 false)
  store ptr @.str.1, ptr getelementptr inbounds nuw (i8, ptr @mgr, i64 312), align 8
  tail call void @llvm.memset.p0.i64(ptr noundef nonnull align 8 dereferenceable(56) getelementptr inbounds nuw (i8, ptr @mgr, i64 320), i8 0, i64 56, i1 false)
  store ptr @.str.2, ptr getelementptr inbounds nuw (i8, ptr @mgr, i64 376), align 8
  tail call void @llvm.memset.p0.i64(ptr noundef nonnull align 8 dereferenceable(56) getelementptr inbounds nuw (i8, ptr @mgr, i64 384), i8 0, i64 56, i1 false)
  store ptr @.str.3, ptr getelementptr inbounds nuw (i8, ptr @mgr, i64 440), align 8
  tail call void @llvm.memset.p0.i64(ptr noundef nonnull align 8 dereferenceable(56) getelementptr inbounds nuw (i8, ptr @mgr, i64 448), i8 0, i64 56, i1 false)
  store ptr @.str.4, ptr getelementptr inbounds nuw (i8, ptr @mgr, i64 504), align 8
  tail call void @llvm.memset.p0.i64(ptr noundef nonnull align 8 dereferenceable(56) getelementptr inbounds nuw (i8, ptr @mgr, i64 512), i8 0, i64 56, i1 false)
  store ptr @.str.5, ptr getelementptr inbounds nuw (i8, ptr @mgr, i64 568), align 8
  tail call void @llvm.memset.p0.i64(ptr noundef nonnull align 8 dereferenceable(56) getelementptr inbounds nuw (i8, ptr @mgr, i64 576), i8 0, i64 56, i1 false)
  store i1 false, ptr @enabled_init, align 4
  store i8 0, ptr @enabled_status, align 1
  ret void
}